target datalayout = "e-m:e-p270:32:32-p271:32:32-p272:64:64-i64:64-i128:128-f80:128-n8:16:32:64-S128"
target triple = "x86_64-pc-linux-gnu"

%struct.AVFormatContext = type { ptr, ptr, ptr, ptr, ptr, i32, i32, ptr, i32, ptr, i32, ptr, ptr, i64, i64, i64, i32, i32, i32, i64, i64, ptr, i32, i32, ptr, i32, i32, i32, i32, ptr, i64, i32, i32, %struct.AVIOInterruptCB, i32, i32, i32, i32, i64, i32, i32, i32, i32, i32, i32, i32, i32, i32, i32, i32, i32, i64, i32, i32, i32, i32, i32, ptr, ptr, ptr, ptr, i32, ptr, ptr, ptr, ptr, i32, ptr, ptr, i64, ptr, ptr, ptr, i64 }
%struct.AVIOInterruptCB = type { ptr, ptr }
%struct.FormatContextInternal = type { %struct.FFFormatContext, %union.anon.0 }
%struct.FFFormatContext = type { %struct.AVFormatContext, i32, %struct.PacketList, i64, ptr, ptr, i32, ptr, i32 }
%struct.PacketList = type { ptr, ptr }
%union.anon.0 = type { %struct.anon.2 }
%struct.anon.2 = type { %struct.PacketList, i32, %struct.PacketList, i32, i32 }

; Function Attrs: alwaysinline nounwind uwtable
define internal ptr @ff_fc_internal(ptr noundef %0) #2 {
  %2 = alloca ptr, align 8
  store ptr %0, ptr %2, align 8, !tbaa !47
  %3 = load ptr, ptr %2, align 8, !tbaa !47
  ret ptr %3
}

; Function Attrs: nounwind uwtable
define void @ff_flush_packet_queue(ptr noundef %0) #0 {
  %2 = alloca ptr, align 8
  %3 = alloca ptr, align 8
  %4 = alloca ptr, align 8
  store ptr %0, ptr %2, align 8, !tbaa !47
  call void @llvm.lifetime.start.p0(i64 8, ptr %3) #11
  %5 = load ptr, ptr %2, align 8, !tbaa !47
  %6 = call ptr @ff_fc_internal(ptr noundef %5)
  store ptr %6, ptr %3, align 8, !tbaa !60
  call void @llvm.lifetime.start.p0(i64 8, ptr %4) #11
  %7 = load ptr, ptr %3, align 8, !tbaa !60
  %8 = getelementptr inbounds nuw %struct.FormatContextInternal, ptr %7, i32 0, i32 0
  store ptr %8, ptr %4, align 8, !tbaa !62
  %9 = load ptr, ptr %3, align 8, !tbaa !60
  %10 = getelementptr inbounds nuw %struct.FormatContextInternal, ptr %9, i32 0, i32 1
  %11 = getelementptr inbounds nuw %struct.anon.2, ptr %10, i32 0, i32 2
  call void @avpriv_packet_list_free(ptr noundef %11)
  %12 = load ptr, ptr %4, align 8, !tbaa !62
  %13 = getelementptr inbounds nuw %struct.FFFormatContext, ptr %12, i32 0, i32 2
  call void @avpriv_packet_list_free(ptr noundef %13)
  %14 = load ptr, ptr %3, align 8, !tbaa !60
  %15 = getelementptr inbounds nuw %struct.FormatContextInternal, ptr %14, i32 0, i32 1
  %16 = getelementptr inbounds nuw %struct.anon.2, ptr %15, i32 0, i32 0
  call void @avpriv_packet_list_free(ptr noundef %16)
  %17 = load ptr, ptr %3, align 8, !tbaa !60
  %18 = getelementptr inbounds nuw %struct.FormatContextInternal, ptr %17, i32 0, i32 1
  %19 = getelementptr inbounds nuw %struct.anon.2, ptr %18, i32 0, i32 1
  store i32 0, ptr %19, align 8, !tbaa !46
  call void @llvm.lifetime.end.p0(i64 8, ptr %4) #11
  call void @llvm.lifetime.end.p0(i64 8, ptr %3) #11
  ret void
}