; Function Attrs: nounwind uwtable
define void @ff_flush_packet_queue(ptr noundef %0) local_unnamed_addr #0 {
  %2 = getelementptr inbounds nuw i8, ptr %0, i64 544
  %3 = getelementptr inbounds nuw i8, ptr %0, i64 568
  tail call void @avpriv_packet_list_free(ptr noundef nonnull %3) #13
  %4 = getelementptr inbounds nuw i8, ptr %0, i64 480
  tail call void @avpriv_packet_list_free(ptr noundef nonnull %4) #13
  tail call void @avpriv_packet_list_free(ptr noundef nonnull %2) #13
  %5 = getelementptr inbounds nuw i8, ptr %0, i64 560
  store i32 0, ptr %5, align 8, !tbaa !41
  ret void
}